target datalayout = "e-m:e-p270:32:32-p271:32:32-p272:64:64-i64:64-i128:128-f80:128-n8:16:32:64-S128"
target triple = "x86_64-pc-linux-gnu"

%struct.tjscalingfactor = type { i32, i32 }
%struct.tjregion = type { i32, i32, i32, i32 }
%struct._tjinstance = type { %struct.jpeg_compress_struct, %struct.jpeg_decompress_struct, %struct.my_error_mgr, i32, [200 x i8], i32, i32, i32, i32, i32, i32, i32, i32, i32, i32, i32, i32, i32, i32, i32, i32, i32, i32, i32, i32, i32, i32, i32, %struct.tjscalingfactor, %struct.tjregion, i32, i32 }
%struct.jpeg_compress_struct = type { ptr, ptr, ptr, ptr, i32, i32, ptr, i32, i32, i32, i32, double, i32, i32, i32, ptr, [4 x ptr], [4 x ptr], [4 x ptr], [16 x i8], [16 x i8], [16 x i8], i32, ptr, i32, i32, i32, i32, i32, i32, i32, i32, i32, i8, i8, i8, i16, i16, i32, i32, i32, i32, i32, i32, i32, [4 x ptr], i32, i32, i32, [10 x i32], i32, i32, i32, i32, ptr, ptr, ptr, ptr, ptr, ptr, ptr, ptr, ptr, ptr, i32 }
%struct.jpeg_decompress_struct = type { ptr, ptr, ptr, ptr, i32, i32, ptr, i32, i32, i32, i32, i32, i32, i32, double, i32, i32, i32, i32, i32, i32, i32, i32, i32, i32, i32, i32, i32, i32, i32, i32, i32, i32, ptr, i32, i32, i32, i32, i32, ptr, [4 x ptr], [4 x ptr], [4 x ptr], i32, ptr, i32, i32, [16 x i8], [16 x i8], [16 x i8], i32, i32, i8, i8, i8, i16, i16, i32, i8, i32, ptr, i32, i32, i32, i32, ptr, i32, [4 x ptr], i32, i32, i32, [10 x i32], i32, i32, i32, i32, i32, ptr, ptr, ptr, ptr, ptr, ptr, ptr, ptr, ptr, ptr, ptr }
%struct.my_error_mgr = type { %struct.jpeg_error_mgr, [1 x %struct.__jmp_buf_tag], ptr, i32, i32 }
%struct.jpeg_error_mgr = type { ptr, ptr, ptr, ptr, ptr, i32, %union.anon, i32, i64, ptr, i32, ptr, i32, i32 }
%union.anon = type { [8 x i32], [48 x i8] }
%struct.__jmp_buf_tag = type { [8 x i64], i32, %struct.__sigset_t }
%struct.__sigset_t = type { [16 x i64] }

@tj3Init.FUNCTION_NAME = internal constant [8 x i8] c"tj3Init\00", align 1
@.str = private unnamed_addr constant [9 x i8] c"%s(): %s\00", align 1
@.str.1 = private unnamed_addr constant [17 x i8] c"Invalid argument\00", align 1
@.str.2 = private unnamed_addr constant [26 x i8] c"Memory allocation failure\00", align 1
@.str.3 = private unnamed_addr constant [9 x i8] c"No error\00", align 1
@TJUNSCALED = internal constant %struct.tjscalingfactor { i32 1, i32 1 }, align 4

; Function Attrs: nounwind uwtable
define ptr @tj3Init(i32 noundef %0) #0 {
  %2 = alloca ptr, align 8
  %3 = alloca i32, align 4
  %4 = alloca ptr, align 8
  %5 = alloca ptr, align 8
  store i32 %0, ptr %3, align 4
  store ptr null, ptr %4, align 8
  store ptr null, ptr %5, align 8
  %6 = load i32, ptr %3, align 4
  %7 = icmp slt i32 %6, 0
  br i1 %7, label %11, label %8

8:                                                ; preds = %1
  %9 = load i32, ptr %3, align 4
  %10 = icmp sge i32 %9, 3
  br i1 %10, label %11, label %15

11:                                               ; preds = %8, %1
  %12 = call align 16 ptr @llvm.threadlocal.address.p0(ptr align 16 @errStr)
  %13 = getelementptr inbounds [200 x i8], ptr %12, i64 0, i64 0
  %14 = call i32 (ptr, i64, ptr, ...) @snprintf(ptr noundef %13, i64 noundef 200, ptr noundef @.str, ptr noundef @tj3Init.FUNCTION_NAME, ptr noundef @.str.1) #11
  store ptr null, ptr %5, align 8
  br label %66

15:                                               ; preds = %8
  %16 = call noalias ptr @malloc(i64 noundef 1864) #12
  store ptr %16, ptr %4, align 8
  %17 = icmp eq ptr %16, null
  br i1 %17, label %18, label %22

18:                                               ; preds = %15
  %19 = call align 16 ptr @llvm.threadlocal.address.p0(ptr align 16 @errStr)
  %20 = getelementptr inbounds [200 x i8], ptr %19, i64 0, i64 0
  %21 = call i32 (ptr, i64, ptr, ...) @snprintf(ptr noundef %20, i64 noundef 200, ptr noundef @.str, ptr noundef @tj3Init.FUNCTION_NAME, ptr noundef @.str.2) #11
  store ptr null, ptr %5, align 8
  br label %66

22:                                               ; preds = %15
  %23 = load ptr, ptr %4, align 8
  call void @llvm.memset.p0.i64(ptr align 8 %23, i8 0, i64 1864, i1 false)
  %24 = load ptr, ptr %4, align 8
  %25 = getelementptr inbounds %struct._tjinstance, ptr %24, i32 0, i32 4
  %26 = getelementptr inbounds [200 x i8], ptr %25, i64 0, i64 0
  %27 = call i32 (ptr, i64, ptr, ...) @snprintf(ptr noundef %26, i64 noundef 200, ptr noundef @.str.3) #11
  %28 = load ptr, ptr %4, align 8
  %29 = getelementptr inbounds %struct._tjinstance, ptr %28, i32 0, i32 8
  store i32 -1, ptr %29, align 8
  %30 = load ptr, ptr %4, align 8
  %31 = getelementptr inbounds %struct._tjinstance, ptr %30, i32 0, i32 9
  store i32 -1, ptr %31, align 4
  %32 = load ptr, ptr %4, align 8
  %33 = getelementptr inbounds %struct._tjinstance, ptr %32, i32 0, i32 10
  store i32 -1, ptr %33, align 8
  %34 = load ptr, ptr %4, align 8
  %35 = getelementptr inbounds %struct._tjinstance, ptr %34, i32 0, i32 11
  store i32 -1, ptr %35, align 4
  %36 = load ptr, ptr %4, align 8
  %37 = getelementptr inbounds %struct._tjinstance, ptr %36, i32 0, i32 12
  store i32 8, ptr %37, align 8
  %38 = load ptr, ptr %4, align 8
  %39 = getelementptr inbounds %struct._tjinstance, ptr %38, i32 0, i32 13
  store i32 -1, ptr %39, align 4
  %40 = load ptr, ptr %4, align 8
  %41 = getelementptr inbounds %struct._tjinstance, ptr %40, i32 0, i32 21
  store i32 1, ptr %41, align 4
  %42 = load ptr, ptr %4, align 8
  %43 = getelementptr inbounds %struct._tjinstance, ptr %42, i32 0, i32 25
  store i32 1, ptr %43, align 4
  %44 = load ptr, ptr %4, align 8
  %45 = getelementptr inbounds %struct._tjinstance, ptr %44, i32 0, i32 26
  store i32 1, ptr %45, align 8
  %46 = load ptr, ptr %4, align 8
  %47 = getelementptr inbounds %struct._tjinstance, ptr %46, i32 0, i32 28
  call void @llvm.memcpy.p0.p0.i64(ptr align 8 %47, ptr align 4 @TJUNSCALED, i64 8, i1 false)
  %48 = load i32, ptr %3, align 4
  switch i32 %48, label %65 [
    i32 0, label %49
    i32 1, label %52
    i32 2, label %55
  ]

49:                                               ; preds = %22
  %50 = load ptr, ptr %4, align 8
  %51 = call ptr @_tjInitCompress(ptr noundef %50)
  store ptr %51, ptr %2, align 8
  br label %68

52:                                               ; preds = %22
  %53 = load ptr, ptr %4, align 8
  %54 = call ptr @_tjInitDecompress(ptr noundef %53)
  store ptr %54, ptr %2, align 8
  br label %68

55:                                               ; preds = %22
  %56 = load ptr, ptr %4, align 8
  %57 = call ptr @_tjInitCompress(ptr noundef %56)
  store ptr %57, ptr %5, align 8
  %58 = load ptr, ptr %5, align 8
  %59 = icmp ne ptr %58, null
  br i1 %59, label %61, label %60

60:                                               ; preds = %55
  store ptr null, ptr %2, align 8
  br label %68

61:                                               ; preds = %55
  %62 = load ptr, ptr %4, align 8
  %63 = call ptr @_tjInitDecompress(ptr noundef %62)
  store ptr %63, ptr %5, align 8
  %64 = load ptr, ptr %5, align 8
  store ptr %64, ptr %2, align 8
  br label %68

65:                                               ; preds = %22
  br label %66

66:                                               ; preds = %65, %18, %11
  %67 = load ptr, ptr %5, align 8
  store ptr %67, ptr %2, align 8
  br label %68

68:                                               ; preds = %66, %61, %60, %52, %49
  %69 = load ptr, ptr %2, align 8
  ret ptr %69
}