; Function Attrs: nounwind uwtable
define noundef ptr @tj3Init(i32 noundef %0) local_unnamed_addr #0 {
  %or.cond = icmp ugt i32 %0, 2
  br i1 %or.cond, label %2, label %5

2:                                                ; preds = %1
  %3 = tail call align 16 ptr @llvm.threadlocal.address.p0(ptr align 16 @errStr)
  %4 = tail call i32 (ptr, i64, ptr, ...) @snprintf(ptr noundef nonnull dereferenceable(1) %3, i64 noundef 200, ptr noundef nonnull @.str, ptr noundef nonnull @tj3Init.FUNCTION_NAME, ptr noundef nonnull @.str.1) #26
  br label %27

5:                                                ; preds = %1
  %calloc = tail call dereferenceable_or_null(1864) ptr @calloc(i64 1, i64 1864)
  %6 = icmp eq ptr %calloc, null
  br i1 %6, label %7, label %10

7:                                                ; preds = %5
  %8 = tail call align 16 ptr @llvm.threadlocal.address.p0(ptr align 16 @errStr)
  %9 = tail call i32 (ptr, i64, ptr, ...) @snprintf(ptr noundef nonnull dereferenceable(1) %8, i64 noundef 200, ptr noundef nonnull @.str, ptr noundef nonnull @tj3Init.FUNCTION_NAME, ptr noundef nonnull @.str.2) #26
  br label %27

10:                                               ; preds = %5
  %11 = getelementptr inbounds i8, ptr %calloc, i64 1540
  tail call void @llvm.memcpy.p0.p0.i64(ptr noundef nonnull align 1 dereferenceable(9) %11, ptr noundef nonnull align 1 dereferenceable(9) @.str.3, i64 9, i1 false)
  %12 = getelementptr inbounds i8, ptr %calloc, i64 1752
  %13 = getelementptr inbounds i8, ptr %calloc, i64 1768
  tail call void @llvm.memset.p0.i64(ptr noundef nonnull align 8 dereferenceable(16) %12, i8 -1, i64 16, i1 false)
  store i32 8, ptr %13, align 8
  %14 = getelementptr inbounds i8, ptr %calloc, i64 1772
  store i32 -1, ptr %14, align 4
  %15 = getelementptr inbounds i8, ptr %calloc, i64 1804
  store i32 1, ptr %15, align 4
  %16 = getelementptr inbounds i8, ptr %calloc, i64 1820
  store i32 1, ptr %16, align 4
  %17 = getelementptr inbounds i8, ptr %calloc, i64 1824
  store i32 1, ptr %17, align 8
  %18 = getelementptr inbounds i8, ptr %calloc, i64 1832
  store i64 4294967297, ptr %18, align 8
  switch i32 %0, label %default.unreachable [
    i32 0, label %19
    i32 1, label %21
    i32 2, label %23
  ]

19:                                               ; preds = %10
  %20 = tail call fastcc ptr @_tjInitCompress(ptr noundef nonnull %calloc)
  br label %27

21:                                               ; preds = %10
  %22 = tail call fastcc ptr @_tjInitDecompress(ptr noundef nonnull %calloc)
  br label %27

23:                                               ; preds = %10
  %24 = tail call fastcc ptr @_tjInitCompress(ptr noundef nonnull %calloc)
  %.not = icmp eq ptr %24, null
  br i1 %.not, label %27, label %25

25:                                               ; preds = %23
  %26 = tail call fastcc ptr @_tjInitDecompress(ptr noundef nonnull %calloc)
  br label %27

default.unreachable:                              ; preds = %10
  unreachable

27:                                               ; preds = %2, %7, %23, %25, %21, %19
  %.023 = phi ptr [ %26, %25 ], [ %22, %21 ], [ %20, %19 ], [ null, %23 ], [ null, %7 ], [ null, %2 ]
  ret ptr %.023
}